; Function Attrs: nounwind uwtable
define dso_local void @zsetConvert(ptr noundef %0, i32 noundef %1) local_unnamed_addr #0 {
  %3 = load i32, ptr %0, align 8
  %4 = lshr i32 %3, 4
  %5 = and i32 %4, 15
  switch i32 %5, label %19 [
    i32 11, label %6
    i32 7, label %12
  ]

6:                                                ; preds = %2
  %7 = getelementptr inbounds nuw i8, ptr %0, i64 8
  %8 = load ptr, ptr %7, align 8, !tbaa !75
  %9 = tail call i64 @lpLength(ptr noundef %8) #18
  %10 = lshr i64 %9, 1
  %11 = and i64 %10, 4294967295
  br label %zsetLength.exit

12:                                               ; preds = %2
  %13 = getelementptr inbounds nuw i8, ptr %0, i64 8
  %14 = load ptr, ptr %13, align 8, !tbaa !75
  %15 = getelementptr inbounds nuw i8, ptr %14, i64 8
  %16 = load ptr, ptr %15, align 8, !tbaa !97
  %17 = getelementptr inbounds nuw i8, ptr %16, i64 16
  %18 = load i64, ptr %17, align 8, !tbaa !17
  br label %zsetLength.exit

19:                                               ; preds = %2
  tail call void (ptr, i32, ptr, ...) @_serverPanic(ptr noundef nonnull @.str.1, i32 noundef 1210, ptr noundef nonnull @.str.9) #18
  tail call void @abort() #19
  unreachable

zsetLength.exit:                                  ; preds = %6, %12
  %.0.i = phi i64 [ %11, %6 ], [ %18, %12 ]
  tail call void @zsetConvertAndExpand(ptr noundef nonnull %0, i32 noundef %1, i64 noundef %.0.i)
  ret void
}